target datalayout = "e-m:e-p270:32:32-p271:32:32-p272:64:64-i64:64-i128:128-f80:128-n8:16:32:64-S128"
target triple = "x86_64-pc-linux-gnu"

%struct.H5O_fsinfo_t = type { i32, i32, i8, i64, i64, i64, i64, [12 x i64], i8 }

@H5O_fsinfo_ver_bounds = internal constant [6 x i32] [i32 256, i32 256, i32 1, i32 1, i32 1, i32 1], align 16
@.str.1 = private unnamed_addr constant [103 x i8] c"generated/home/dtcxzyw/WorkSpace/Projects/compilers/llvm-opt-benchmark/bench/hdf5/hdf5/src/H5Ofsinfo.c\00", align 1
@H5E_OHDR_g = external global i64, align 8
@H5E_BADRANGE_g = external global i64, align 8
@.str.2 = private unnamed_addr constant [48 x i8] c"File space info message's version out of bounds\00", align 1
@__func__.H5O_fsinfo_check_version = private unnamed_addr constant [25 x i8] c"H5O_fsinfo_check_version\00", align 1

; Function Attrs: nounwind uwtable
define i32 @H5O_fsinfo_check_version(i32 noundef %0, ptr noundef %1) #0 {
  %3 = alloca i32, align 4
  %4 = alloca ptr, align 8
  %5 = alloca i32, align 4
  %6 = alloca i8, align 1
  store i32 %0, ptr %3, align 4
  store ptr %1, ptr %4, align 8
  store i32 0, ptr %5, align 4
  store i8 0, ptr %6, align 1
  %7 = load i32, ptr %3, align 4
  %8 = sext i32 %7 to i64
  %9 = getelementptr inbounds [6 x i32], ptr @H5O_fsinfo_ver_bounds, i64 0, i64 %8
  %10 = load i32, ptr %9, align 4
  %11 = icmp eq i32 %10, 256
  br i1 %11, label %21, label %12

12:                                               ; preds = %2
  %13 = load ptr, ptr %4, align 8
  %14 = getelementptr inbounds %struct.H5O_fsinfo_t, ptr %13, i32 0, i32 0
  %15 = load i32, ptr %14, align 8
  %16 = load i32, ptr %3, align 4
  %17 = sext i32 %16 to i64
  %18 = getelementptr inbounds [6 x i32], ptr @H5O_fsinfo_ver_bounds, i64 0, i64 %17
  %19 = load i32, ptr %18, align 4
  %20 = icmp ugt i32 %15, %19
  br i1 %20, label %21, label %36

21:                                               ; preds = %12, %2
  br label %22

22:                                               ; preds = %21
  br label %23

23:                                               ; preds = %22
  br label %24

24:                                               ; preds = %23
  %25 = load i64, ptr @H5E_OHDR_g, align 8
  %26 = load i64, ptr @H5E_BADRANGE_g, align 8
  %27 = call i32 (ptr, ptr, i32, i64, i64, ptr, ...) @H5E_printf_stack(ptr noundef @.str.1, ptr noundef @__func__.H5O_fsinfo_check_version, i32 noundef 477, i64 noundef %25, i64 noundef %26, ptr noundef @.str.2)
  br label %28

28:                                               ; preds = %24
  store i8 1, ptr %6, align 1
  %29 = load i8, ptr %6, align 1
  %30 = trunc i8 %29 to i1
  %31 = zext i1 %30 to i8
  store i8 %31, ptr %6, align 1
  br label %32

32:                                               ; preds = %28
  br label %33

33:                                               ; preds = %32
  store i32 -1, ptr %5, align 4
  br label %37

34:                                               ; No predecessors!
  br label %35

35:                                               ; preds = %34
  br label %36

36:                                               ; preds = %35, %12
  br label %37

37:                                               ; preds = %36, %33
  %38 = load i32, ptr %5, align 4
  ret i32 %38
}