; Function Attrs: nounwind uwtable
define range(i32 -1, 1) i32 @H5O_fsinfo_check_version(i32 noundef %0, ptr nocapture noundef readonly %1) local_unnamed_addr #0 {
  %3 = icmp ult i32 %0, 2
  br i1 %3, label %10, label %4

4:                                                ; preds = %2
  %5 = sext i32 %0 to i64
  %6 = getelementptr inbounds [6 x i32], ptr @H5O_fsinfo_ver_bounds, i64 0, i64 %5
  %7 = load i32, ptr %6, align 4
  %8 = load i32, ptr %1, align 8
  %9 = icmp ugt i32 %8, %7
  br i1 %9, label %10, label %14

10:                                               ; preds = %2, %4
  %11 = load i64, ptr @H5E_OHDR_g, align 8
  %12 = load i64, ptr @H5E_BADRANGE_g, align 8
  %13 = tail call i32 (ptr, ptr, i32, i64, i64, ptr, ...) @H5E_printf_stack(ptr noundef nonnull @.str.1, ptr noundef nonnull @__func__.H5O_fsinfo_check_version, i32 noundef 477, i64 noundef %11, i64 noundef %12, ptr noundef nonnull @.str.2) #6
  br label %14

14:                                               ; preds = %4, %10
  %.0 = phi i32 [ -1, %10 ], [ 0, %4 ]
  ret i32 %.0
}